target datalayout = "e-m:e-p270:32:32-p271:32:32-p272:64:64-i64:64-i128:128-f80:128-n8:16:32:64-S128"
target triple = "x86_64-pc-linux-gnu"

%struct.rbimpl_size_mul_overflow_tag = type { i8, i64 }

; Function Attrs: inlinehint nounwind sspstrong willreturn memory(none) uwtable
define internal { i8, i64 } @rbimpl_size_mul_overflow(i64 noundef %0, i64 noundef %1) #5 {
  %3 = alloca %struct.rbimpl_size_mul_overflow_tag, align 8
  %4 = alloca i64, align 8
  %5 = alloca i64, align 8
  store i64 %0, ptr %4, align 8, !tbaa !14
  store i64 %1, ptr %5, align 8, !tbaa !14
  call void @llvm.memset.p0.i64(ptr align 8 %3, i8 0, i64 16, i1 false)
  %6 = load i64, ptr %4, align 8, !tbaa !14
  %7 = load i64, ptr %5, align 8, !tbaa !14
  %8 = getelementptr inbounds nuw %struct.rbimpl_size_mul_overflow_tag, ptr %3, i32 0, i32 1
  %9 = call { i64, i1 } @llvm.umul.with.overflow.i64(i64 %6, i64 %7)
  %10 = extractvalue { i64, i1 } %9, 1
  %11 = extractvalue { i64, i1 } %9, 0
  store i64 %11, ptr %8, align 8
  %12 = getelementptr inbounds nuw %struct.rbimpl_size_mul_overflow_tag, ptr %3, i32 0, i32 0
  %13 = zext i1 %10 to i8
  store i8 %13, ptr %12, align 8, !tbaa !105
  %14 = load { i8, i64 }, ptr %3, align 8
  ret { i8, i64 } %14
}

; Function Attrs: alwaysinline nounwind
define internal ptr @memcpy.inline(ptr noalias nonnull %0, ptr noalias nonnull %1, i64 %2) #24 {
  %4 = alloca ptr, align 8
  %5 = alloca ptr, align 8
  %6 = alloca i64, align 8
  store ptr %0, ptr %4, align 8, !tbaa !40
  store ptr %1, ptr %5, align 8, !tbaa !40
  store i64 %2, ptr %6, align 8, !tbaa !14
  %7 = load ptr, ptr %4, align 8, !tbaa !40
  %8 = load ptr, ptr %5, align 8, !tbaa !40
  %9 = load i64, ptr %6, align 8, !tbaa !14
  %10 = load ptr, ptr %4, align 8, !tbaa !40
  %11 = call i64 @llvm.objectsize.i64.p0(ptr %10, i1 false, i1 true, i1 false)
  %12 = call ptr @__memcpy_chk(ptr noundef %7, ptr noundef %8, i64 noundef %9, i64 noundef %11) #30
  ret ptr %12
}

; Function Attrs: inlinehint nounwind sspstrong uwtable
define internal i64 @rbimpl_size_mul_or_raise(i64 noundef %0, i64 noundef %1) #6 {
  %3 = alloca i64, align 8
  %4 = alloca i64, align 8
  %5 = alloca %struct.rbimpl_size_mul_overflow_tag, align 8
  store i64 %0, ptr %3, align 8, !tbaa !14
  store i64 %1, ptr %4, align 8, !tbaa !14
  call void @llvm.lifetime.start.p0(i64 16, ptr %5) #30
  %6 = load i64, ptr %3, align 8, !tbaa !14
  %7 = load i64, ptr %4, align 8, !tbaa !14
  %8 = call { i8, i64 } @rbimpl_size_mul_overflow(i64 noundef %6, i64 noundef %7) #32
  %9 = getelementptr inbounds nuw { i8, i64 }, ptr %5, i32 0, i32 0
  %10 = extractvalue { i8, i64 } %8, 0
  store i8 %10, ptr %9, align 8
  %11 = getelementptr inbounds nuw { i8, i64 }, ptr %5, i32 0, i32 1
  %12 = extractvalue { i8, i64 } %8, 1
  store i64 %12, ptr %11, align 8
  %13 = getelementptr inbounds nuw %struct.rbimpl_size_mul_overflow_tag, ptr %5, i32 0, i32 0
  %14 = load i8, ptr %13, align 8, !tbaa !105, !range !30, !noundef !31
  %15 = trunc i8 %14 to i1
  %16 = xor i1 %15, true
  %17 = xor i1 %16, true
  %18 = xor i1 %17, true
  %19 = zext i1 %18 to i32
  %20 = sext i32 %19 to i64
  %21 = call i64 @llvm.expect.i64(i64 %20, i64 1)
  %22 = icmp ne i64 %21, 0
  br i1 %22, label %23, label %26

23:                                               ; preds = %2
  %24 = getelementptr inbounds nuw %struct.rbimpl_size_mul_overflow_tag, ptr %5, i32 0, i32 1
  %25 = load i64, ptr %24, align 8, !tbaa !107
  call void @llvm.lifetime.end.p0(i64 16, ptr %5) #30
  ret i64 %25

26:                                               ; preds = %2
  %27 = load i64, ptr %3, align 8, !tbaa !14
  %28 = load i64, ptr %4, align 8, !tbaa !14
  call void @ruby_malloc_size_overflow(i64 noundef %27, i64 noundef %28) #31
  unreachable
}

; Function Attrs: inlinehint nounwind sspstrong memory(argmem: readwrite, inaccessiblemem: readwrite) uwtable
define internal nonnull ptr @ruby_nonempty_memcpy(ptr noundef nonnull %0, ptr noundef %1, i64 noundef %2) #8 {
  %4 = alloca ptr, align 8
  %5 = alloca ptr, align 8
  %6 = alloca ptr, align 8
  %7 = alloca i64, align 8
  store ptr %0, ptr %5, align 8, !tbaa !40
  store ptr %1, ptr %6, align 8, !tbaa !40
  store i64 %2, ptr %7, align 8, !tbaa !14
  %8 = load i64, ptr %7, align 8, !tbaa !14
  %9 = icmp ne i64 %8, 0
  br i1 %9, label %10, label %15

10:                                               ; preds = %3
  %11 = load ptr, ptr %5, align 8, !tbaa !40
  %12 = load ptr, ptr %6, align 8, !tbaa !40
  %13 = load i64, ptr %7, align 8, !tbaa !14
  %14 = call ptr @memcpy.inline(ptr noundef %11, ptr noundef %12, i64 noundef %13) #30
  store ptr %14, ptr %4, align 8
  br label %17

15:                                               ; preds = %3
  %16 = load ptr, ptr %5, align 8, !tbaa !40
  store ptr %16, ptr %4, align 8
  br label %17

17:                                               ; preds = %15, %10
  %18 = load ptr, ptr %4, align 8
  ret ptr %18
}

; Function Attrs: inlinehint nounwind sspstrong uwtable
define internal ptr @rb_alloc_tmp_buffer2(ptr noundef %0, i64 noundef %1, i64 noundef %2) #6 {
  %4 = alloca ptr, align 8
  %5 = alloca i64, align 8
  %6 = alloca i64, align 8
  %7 = alloca i64, align 8
  %8 = alloca i64, align 8
  store ptr %0, ptr %4, align 8, !tbaa !49
  store i64 %1, ptr %5, align 8, !tbaa !14
  store i64 %2, ptr %6, align 8, !tbaa !14
  call void @llvm.lifetime.start.p0(i64 8, ptr %7) #30
  %9 = load i64, ptr %5, align 8, !tbaa !14
  %10 = load i64, ptr %6, align 8, !tbaa !14
  %11 = call i64 @rbimpl_size_mul_or_raise(i64 noundef %9, i64 noundef %10)
  store i64 %11, ptr %7, align 8, !tbaa !14
  call void @llvm.lifetime.start.p0(i64 8, ptr %8) #30
  %12 = load i64, ptr %7, align 8, !tbaa !14
  %13 = add i64 %12, 8
  %14 = sub i64 %13, 1
  %15 = udiv i64 %14, 8
  store i64 %15, ptr %8, align 8, !tbaa !14
  %16 = load ptr, ptr %4, align 8, !tbaa !49
  %17 = load i64, ptr %7, align 8, !tbaa !14
  %18 = load i64, ptr %8, align 8, !tbaa !14
  %19 = call noalias nonnull ptr @rb_alloc_tmp_buffer_with_count(ptr noundef %16, i64 noundef %17, i64 noundef %18) #37
  call void @llvm.lifetime.end.p0(i64 8, ptr %8) #30
  call void @llvm.lifetime.end.p0(i64 8, ptr %7) #30
  ret ptr %19
}

; Function Attrs: nounwind sspstrong uwtable
define internal i64 @find_global_id(ptr noundef %0) #0 {
  %2 = alloca ptr, align 8
  %3 = alloca i64, align 8
  %4 = alloca i64, align 8
  %5 = alloca i64, align 8
  %6 = alloca ptr, align 8
  store ptr %0, ptr %2, align 8, !tbaa !16
  call void @llvm.lifetime.start.p0(i64 8, ptr %3) #30
  call void @llvm.lifetime.start.p0(i64 8, ptr %4) #30
  %7 = load ptr, ptr %2, align 8, !tbaa !16
  %8 = call i64 @strlen(ptr noundef %7) #29
  store i64 %8, ptr %4, align 8, !tbaa !14
  %9 = load ptr, ptr %2, align 8, !tbaa !16
  %10 = getelementptr i8, ptr %9, i64 0
  %11 = load i8, ptr %10, align 1, !tbaa !36
  %12 = sext i8 %11 to i32
  %13 = icmp eq i32 %12, 36
  br i1 %13, label %14, label %18

14:                                               ; preds = %1
  %15 = load ptr, ptr %2, align 8, !tbaa !16
  %16 = load i64, ptr %4, align 8, !tbaa !14
  %17 = call i64 @rb_check_id_cstr(ptr noundef %15, i64 noundef %16, ptr noundef null)
  store i64 %17, ptr %3, align 8, !tbaa !14
  br label %44

18:                                               ; preds = %1
  call void @llvm.lifetime.start.p0(i64 8, ptr %5) #30
  store i64 0, ptr %5, align 8, !tbaa !14
  call void @llvm.lifetime.start.p0(i64 8, ptr %6) #30
  %19 = load i64, ptr %4, align 8, !tbaa !14
  %20 = add i64 %19, 1
  %21 = icmp ult i64 %20, 1024
  br i1 %21, label %22, label %27

22:                                               ; preds = %18
  store i64 0, ptr %5, align 8, !tbaa !14
  %23 = load i64, ptr %4, align 8, !tbaa !14
  %24 = add i64 %23, 1
  %25 = mul i64 %24, 1
  %26 = alloca i8, i64 %25, align 16
  br label %31

27:                                               ; preds = %18
  %28 = load i64, ptr %4, align 8, !tbaa !14
  %29 = add i64 %28, 1
  %30 = call ptr @rb_alloc_tmp_buffer2(ptr noundef %5, i64 noundef %29, i64 noundef 1)
  br label %31

31:                                               ; preds = %27, %22
  %32 = phi ptr [ %26, %22 ], [ %30, %27 ]
  store ptr %32, ptr %6, align 8, !tbaa !16
  %33 = load ptr, ptr %6, align 8, !tbaa !16
  %34 = getelementptr i8, ptr %33, i64 0
  store i8 36, ptr %34, align 1, !tbaa !36
  %35 = load ptr, ptr %6, align 8, !tbaa !16
  %36 = getelementptr i8, ptr %35, i64 1
  %37 = load ptr, ptr %2, align 8, !tbaa !16
  %38 = load i64, ptr %4, align 8, !tbaa !14
  %39 = call nonnull ptr @ruby_nonempty_memcpy(ptr noundef %36, ptr noundef %37, i64 noundef %38) #34
  %40 = load ptr, ptr %6, align 8, !tbaa !16
  %41 = load i64, ptr %4, align 8, !tbaa !14
  %42 = add i64 %41, 1
  %43 = call i64 @rb_check_id_cstr(ptr noundef %40, i64 noundef %42, ptr noundef null)
  store i64 %43, ptr %3, align 8, !tbaa !14
  call void @rb_free_tmp_buffer(ptr noundef %5)
  call void @llvm.lifetime.end.p0(i64 8, ptr %6) #30
  call void @llvm.lifetime.end.p0(i64 8, ptr %5) #30
  br label %44

44:                                               ; preds = %31, %14
  %45 = load i64, ptr %3, align 8, !tbaa !14
  call void @llvm.lifetime.end.p0(i64 8, ptr %4) #30
  call void @llvm.lifetime.end.p0(i64 8, ptr %3) #30
  ret i64 %45
}