; Function Attrs: nounwind sspstrong uwtable
define internal fastcc i64 @find_global_id(ptr noundef nonnull %0) unnamed_addr #0 {
  %2 = alloca i64, align 8
  %3 = tail call i64 @strlen(ptr noundef nonnull dereferenceable(1) %0) #29
  %4 = load i8, ptr %0, align 1, !tbaa !32
  %5 = icmp eq i8 %4, 36
  br i1 %5, label %6, label %8

6:                                                ; preds = %1
  %7 = tail call i64 @rb_check_id_cstr(ptr noundef nonnull %0, i64 noundef %3, ptr noundef null) #27
  br label %23

8:                                                ; preds = %1
  call void @llvm.lifetime.start.p0(i64 8, ptr nonnull %2) #27
  store i64 0, ptr %2, align 8, !tbaa !14
  %9 = add i64 %3, 1
  %10 = icmp ult i64 %9, 1024
  br i1 %10, label %15, label %.thread

.thread:                                          ; preds = %8
  %11 = add i64 %3, 8
  %12 = lshr i64 %11, 3
  %13 = call noalias nonnull ptr @rb_alloc_tmp_buffer_with_count(ptr noundef nonnull %2, i64 noundef range(i64 1024, 0) %9, i64 noundef %12) #31
  store i8 36, ptr %13, align 1, !tbaa !32
  %14 = getelementptr i8, ptr %13, i64 1
  br label %18

15:                                               ; preds = %8
  %16 = alloca i8, i64 %9, align 16
  store i8 36, ptr %16, align 16, !tbaa !32
  %17 = getelementptr i8, ptr %16, i64 1
  %.not.i = icmp eq i64 %3, 0
  br i1 %.not.i, label %ruby_nonempty_memcpy.exit, label %18

18:                                               ; preds = %.thread, %15
  %19 = phi ptr [ %14, %.thread ], [ %17, %15 ]
  %20 = phi ptr [ %13, %.thread ], [ %16, %15 ]
  call void @llvm.memcpy.p0.p0.i64(ptr noundef nonnull align 1 %19, ptr noundef nonnull readonly align 1 %0, i64 noundef range(i64 1, 0) %3, i1 noundef false) #27
  br label %ruby_nonempty_memcpy.exit

ruby_nonempty_memcpy.exit:                        ; preds = %15, %18
  %21 = phi ptr [ %16, %15 ], [ %20, %18 ]
  %22 = call i64 @rb_check_id_cstr(ptr noundef nonnull %21, i64 noundef %9, ptr noundef null) #27
  call void @rb_free_tmp_buffer(ptr noundef nonnull %2) #27
  call void @llvm.lifetime.end.p0(i64 8, ptr nonnull %2) #27
  br label %23

23:                                               ; preds = %ruby_nonempty_memcpy.exit, %6
  %.0 = phi i64 [ %7, %6 ], [ %22, %ruby_nonempty_memcpy.exit ]
  ret i64 %.0
}